target datalayout = "e-m:e-p270:32:32-p271:32:32-p272:64:64-i64:64-i128:128-f80:128-n8:16:32:64-S128"
target triple = "x86_64-pc-linux-gnu"

@__func__.output_field_check = private unnamed_addr constant [19 x i8] c"output_field_check\00", align 1

; Function Attrs: null_pointer_is_valid sspstrong uwtable
define internal void @output_field_check(ptr noundef %0, ptr noundef %1) #0 {
  %3 = alloca ptr, align 8
  %4 = alloca ptr, align 8
  %5 = alloca ptr, align 8
  %6 = alloca ptr, align 8
  %7 = alloca ptr, align 8
  store ptr %0, ptr %3, align 8
  store ptr %1, ptr %4, align 8
  call void @llvm.lifetime.start.p0(i64 8, ptr %5) #15
  %8 = load ptr, ptr %3, align 8
  store ptr %8, ptr %5, align 8
  call void @llvm.lifetime.start.p0(i64 8, ptr %6) #15
  %9 = load ptr, ptr %4, align 8
  store ptr %9, ptr %6, align 8
  call void @llvm.lifetime.start.p0(i64 8, ptr %7) #15
  %10 = load ptr, ptr %5, align 8
  %11 = call zeroext i1 @dfilter_compile_full(ptr noundef %10, ptr noundef %7, ptr noundef null, i32 noundef 6, ptr noundef @__func__.output_field_check)
  br i1 %11, label %12, label %14

12:                                               ; preds = %2
  %13 = load ptr, ptr %7, align 8
  call void @dfilter_free(ptr noundef %13)
  br label %20

14:                                               ; preds = %2
  %15 = load ptr, ptr %6, align 8
  %16 = load ptr, ptr %15, align 8
  %17 = load ptr, ptr %5, align 8
  %18 = call ptr @g_slist_prepend(ptr noundef %16, ptr noundef %17)
  %19 = load ptr, ptr %6, align 8
  store ptr %18, ptr %19, align 8
  br label %20

20:                                               ; preds = %14, %12
  call void @llvm.lifetime.end.p0(i64 8, ptr %7) #15
  call void @llvm.lifetime.end.p0(i64 8, ptr %6) #15
  call void @llvm.lifetime.end.p0(i64 8, ptr %5) #15
  ret void
}

; Function Attrs: null_pointer_is_valid sspstrong uwtable
define internal void @output_field_check_protocolfilter(ptr noundef %0, ptr noundef %1, ptr noundef %2) #0 {
  %4 = alloca ptr, align 8
  %5 = alloca ptr, align 8
  %6 = alloca ptr, align 8
  store ptr %0, ptr %4, align 8
  store ptr %1, ptr %5, align 8
  store ptr %2, ptr %6, align 8
  %7 = load ptr, ptr %4, align 8
  %8 = load ptr, ptr %6, align 8
  call void @output_field_check(ptr noundef %7, ptr noundef %8)
  ret void
}