; Function Attrs: null_pointer_is_valid sspstrong uwtable
define internal void @output_field_check_protocolfilter(ptr noundef %0, ptr readnone captures(none) %1, ptr noundef captures(none) %2) #0 {
  %4 = alloca ptr, align 8
  call void @llvm.lifetime.start.p0(i64 8, ptr nonnull %4) #21
  %5 = call zeroext i1 @dfilter_compile_full(ptr noundef %0, ptr noundef nonnull %4, ptr noundef null, i32 noundef 6, ptr noundef nonnull @__func__.output_field_check)
  br i1 %5, label %6, label %8

6:                                                ; preds = %3
  %7 = load ptr, ptr %4, align 8
  call void @dfilter_free(ptr noundef %7)
  br label %output_field_check.exit

8:                                                ; preds = %3
  %9 = load ptr, ptr %2, align 8
  %10 = call ptr @g_slist_prepend(ptr noundef %9, ptr noundef %0)
  store ptr %10, ptr %2, align 8
  br label %output_field_check.exit

output_field_check.exit:                          ; preds = %6, %8
  call void @llvm.lifetime.end.p0(i64 8, ptr nonnull %4) #21
  ret void
}